target datalayout = "e-m:e-p270:32:32-p271:32:32-p272:64:64-i64:64-i128:128-f80:128-n8:16:32:64-S128"
target triple = "x86_64-pc-linux-gnu"

%struct.ParseState = type { ptr, ptr, i32, i32, ptr, ptr, ptr, ptr, ptr, ptr, i8, ptr, ptr, ptr, ptr, ptr, ptr, i8, ptr, i32, i32, ptr, ptr, i8, i8, ptr, i8, i8, i8, i8, i8, ptr, ptr, ptr, ptr, ptr, ptr }
%struct.List = type { i32, i32, i32, ptr, [0 x %union.ListCell] }
%union.ListCell = type { ptr }
%struct.ParseNamespaceItem = type { ptr, ptr, i32, ptr, ptr, i8, i8, i8, i8, i32 }
%struct.RangeTblEntry = type { i32, ptr, ptr, i32, i32, i8, i8, i32, i32, ptr, ptr, i8, i32, i32, ptr, ptr, ptr, ptr, ptr, i8, ptr, ptr, ptr, i32, i8, ptr, ptr, ptr, ptr, double, ptr, i8, i8, ptr }
%struct.ParseNamespaceColumn = type { i32, i16, i32, i32, i32, i32, i32, i16, i8 }
%struct.Alias = type { i32, ptr, ptr }

; Function Attrs: inlinehint nounwind uwtable
define internal i32 @list_length(ptr noundef %0) #3 {
  %2 = alloca ptr, align 8
  store ptr %0, ptr %2, align 8
  %3 = load ptr, ptr %2, align 8
  %4 = icmp ne ptr %3, null
  br i1 %4, label %5, label %9

5:                                                ; preds = %1
  %6 = load ptr, ptr %2, align 8
  %7 = getelementptr inbounds nuw %struct.List, ptr %6, i32 0, i32 1
  %8 = load i32, ptr %7, align 4
  br label %10

9:                                                ; preds = %1
  br label %10

10:                                               ; preds = %9, %5
  %11 = phi i32 [ %8, %5 ], [ 0, %9 ]
  ret i32 %11
}

; Function Attrs: nounwind uwtable
define internal void @addNSItemForReturning(ptr noundef %0, ptr noundef %1, i32 noundef %2) #0 {
  %4 = alloca ptr, align 8
  %5 = alloca ptr, align 8
  %6 = alloca i32, align 4
  %7 = alloca ptr, align 8
  %8 = alloca i32, align 4
  %9 = alloca ptr, align 8
  %10 = alloca ptr, align 8
  %11 = alloca i32, align 4
  store ptr %0, ptr %4, align 8
  store ptr %1, ptr %5, align 8
  store i32 %2, ptr %6, align 4
  call void @llvm.lifetime.start.p0(i64 8, ptr %7) #8
  call void @llvm.lifetime.start.p0(i64 4, ptr %8) #8
  call void @llvm.lifetime.start.p0(i64 8, ptr %9) #8
  call void @llvm.lifetime.start.p0(i64 8, ptr %10) #8
  %12 = load ptr, ptr %4, align 8
  %13 = getelementptr inbounds nuw %struct.ParseState, ptr %12, i32 0, i32 15
  %14 = load ptr, ptr %13, align 8
  %15 = getelementptr inbounds nuw %struct.ParseNamespaceItem, ptr %14, i32 0, i32 1
  %16 = load ptr, ptr %15, align 8
  %17 = getelementptr inbounds nuw %struct.RangeTblEntry, ptr %16, i32 0, i32 2
  %18 = load ptr, ptr %17, align 8
  %19 = getelementptr inbounds nuw %struct.Alias, ptr %18, i32 0, i32 2
  %20 = load ptr, ptr %19, align 8
  store ptr %20, ptr %7, align 8
  %21 = load ptr, ptr %7, align 8
  %22 = call i32 @list_length(ptr noundef %21)
  store i32 %22, ptr %8, align 4
  %23 = load i32, ptr %8, align 4
  %24 = sext i32 %23 to i64
  %25 = mul i64 %24, 32
  %26 = call ptr @palloc(i64 noundef %25)
  store ptr %26, ptr %9, align 8
  %27 = load ptr, ptr %9, align 8
  %28 = load ptr, ptr %4, align 8
  %29 = getelementptr inbounds nuw %struct.ParseState, ptr %28, i32 0, i32 15
  %30 = load ptr, ptr %29, align 8
  %31 = getelementptr inbounds nuw %struct.ParseNamespaceItem, ptr %30, i32 0, i32 4
  %32 = load ptr, ptr %31, align 8
  %33 = load i32, ptr %8, align 4
  %34 = sext i32 %33 to i64
  %35 = mul i64 %34, 32
  call void @llvm.memcpy.p0.p0.i64(ptr align 4 %27, ptr align 4 %32, i64 %35, i1 false)
  call void @llvm.lifetime.start.p0(i64 4, ptr %11) #8
  store i32 0, ptr %11, align 4
  br label %36

36:                                               ; preds = %48, %3
  %37 = load i32, ptr %11, align 4
  %38 = load i32, ptr %8, align 4
  %39 = icmp slt i32 %37, %38
  br i1 %39, label %41, label %40

40:                                               ; preds = %36
  call void @llvm.lifetime.end.p0(i64 4, ptr %11) #8
  br label %51

41:                                               ; preds = %36
  %42 = load i32, ptr %6, align 4
  %43 = load ptr, ptr %9, align 8
  %44 = load i32, ptr %11, align 4
  %45 = sext i32 %44 to i64
  %46 = getelementptr inbounds %struct.ParseNamespaceColumn, ptr %43, i64 %45
  %47 = getelementptr inbounds nuw %struct.ParseNamespaceColumn, ptr %46, i32 0, i32 5
  store i32 %42, ptr %47, align 4
  br label %48

48:                                               ; preds = %41
  %49 = load i32, ptr %11, align 4
  %50 = add i32 %49, 1
  store i32 %50, ptr %11, align 4
  br label %36, !llvm.loop !35

51:                                               ; preds = %40
  %52 = call ptr @palloc(i64 noundef 48)
  store ptr %52, ptr %10, align 8
  %53 = load ptr, ptr %5, align 8
  %54 = load ptr, ptr %7, align 8
  %55 = call ptr @makeAlias(ptr noundef %53, ptr noundef %54)
  %56 = load ptr, ptr %10, align 8
  %57 = getelementptr inbounds nuw %struct.ParseNamespaceItem, ptr %56, i32 0, i32 0
  store ptr %55, ptr %57, align 8
  %58 = load ptr, ptr %4, align 8
  %59 = getelementptr inbounds nuw %struct.ParseState, ptr %58, i32 0, i32 15
  %60 = load ptr, ptr %59, align 8
  %61 = getelementptr inbounds nuw %struct.ParseNamespaceItem, ptr %60, i32 0, i32 1
  %62 = load ptr, ptr %61, align 8
  %63 = load ptr, ptr %10, align 8
  %64 = getelementptr inbounds nuw %struct.ParseNamespaceItem, ptr %63, i32 0, i32 1
  store ptr %62, ptr %64, align 8
  %65 = load ptr, ptr %4, align 8
  %66 = getelementptr inbounds nuw %struct.ParseState, ptr %65, i32 0, i32 15
  %67 = load ptr, ptr %66, align 8
  %68 = getelementptr inbounds nuw %struct.ParseNamespaceItem, ptr %67, i32 0, i32 2
  %69 = load i32, ptr %68, align 8
  %70 = load ptr, ptr %10, align 8
  %71 = getelementptr inbounds nuw %struct.ParseNamespaceItem, ptr %70, i32 0, i32 2
  store i32 %69, ptr %71, align 8
  %72 = load ptr, ptr %4, align 8
  %73 = getelementptr inbounds nuw %struct.ParseState, ptr %72, i32 0, i32 15
  %74 = load ptr, ptr %73, align 8
  %75 = getelementptr inbounds nuw %struct.ParseNamespaceItem, ptr %74, i32 0, i32 3
  %76 = load ptr, ptr %75, align 8
  %77 = load ptr, ptr %10, align 8
  %78 = getelementptr inbounds nuw %struct.ParseNamespaceItem, ptr %77, i32 0, i32 3
  store ptr %76, ptr %78, align 8
  %79 = load ptr, ptr %9, align 8
  %80 = load ptr, ptr %10, align 8
  %81 = getelementptr inbounds nuw %struct.ParseNamespaceItem, ptr %80, i32 0, i32 4
  store ptr %79, ptr %81, align 8
  %82 = load i32, ptr %6, align 4
  %83 = load ptr, ptr %10, align 8
  %84 = getelementptr inbounds nuw %struct.ParseNamespaceItem, ptr %83, i32 0, i32 9
  store i32 %82, ptr %84, align 4
  %85 = load ptr, ptr %4, align 8
  %86 = load ptr, ptr %10, align 8
  call void @addNSItemToQuery(ptr noundef %85, ptr noundef %86, i1 noundef zeroext false, i1 noundef zeroext true, i1 noundef zeroext false)
  call void @llvm.lifetime.end.p0(i64 8, ptr %10) #8
  call void @llvm.lifetime.end.p0(i64 8, ptr %9) #8
  call void @llvm.lifetime.end.p0(i64 4, ptr %8) #8
  call void @llvm.lifetime.end.p0(i64 8, ptr %7) #8
  ret void
}