; Function Attrs: nounwind uwtable
define internal fastcc void @addNSItemForReturning(ptr noundef %0, ptr noundef %1, i32 noundef range(i32 1, 3) %2) unnamed_addr #0 {
  %4 = getelementptr inbounds nuw i8, ptr %0, i64 112
  %5 = load ptr, ptr %4, align 8
  %6 = getelementptr inbounds nuw i8, ptr %5, i64 8
  %7 = load ptr, ptr %6, align 8
  %8 = getelementptr inbounds nuw i8, ptr %7, i64 16
  %9 = load ptr, ptr %8, align 8
  %10 = getelementptr inbounds nuw i8, ptr %9, i64 16
  %11 = load ptr, ptr %10, align 8
  %.not.i = icmp eq ptr %11, null
  br i1 %.not.i, label %list_length.exit, label %12

12:                                               ; preds = %3
  %13 = getelementptr inbounds nuw i8, ptr %11, i64 4
  %14 = load i32, ptr %13, align 4
  br label %list_length.exit

list_length.exit:                                 ; preds = %3, %12
  %15 = phi i32 [ %14, %12 ], [ 0, %3 ]
  %16 = sext i32 %15 to i64
  %17 = shl nsw i64 %16, 5
  %18 = tail call ptr @palloc(i64 noundef %17) #11
  %19 = load ptr, ptr %4, align 8
  %20 = getelementptr inbounds nuw i8, ptr %19, i64 32
  %21 = load ptr, ptr %20, align 8
  tail call void @llvm.memcpy.p0.p0.i64(ptr align 4 %18, ptr align 4 %21, i64 %17, i1 false)
  %22 = icmp sgt i32 %15, 0
  br i1 %22, label %.lr.ph.preheader, label %._crit_edge

.lr.ph.preheader:                                 ; preds = %list_length.exit
  %wide.trip.count = zext nneg i32 %15 to i64
  br label %.lr.ph

._crit_edge:                                      ; preds = %.lr.ph, %list_length.exit
  %23 = tail call ptr @palloc(i64 noundef 48) #11
  %24 = tail call ptr @makeAlias(ptr noundef %1, ptr noundef %11) #11
  store ptr %24, ptr %23, align 8
  %25 = load ptr, ptr %4, align 8
  %26 = getelementptr inbounds nuw i8, ptr %25, i64 8
  %27 = load ptr, ptr %26, align 8
  %28 = getelementptr inbounds nuw i8, ptr %23, i64 8
  store ptr %27, ptr %28, align 8
  %29 = load ptr, ptr %4, align 8
  %30 = getelementptr inbounds nuw i8, ptr %29, i64 16
  %31 = load i32, ptr %30, align 8
  %32 = getelementptr inbounds nuw i8, ptr %23, i64 16
  store i32 %31, ptr %32, align 8
  %33 = load ptr, ptr %4, align 8
  %34 = getelementptr inbounds nuw i8, ptr %33, i64 24
  %35 = load ptr, ptr %34, align 8
  %36 = getelementptr inbounds nuw i8, ptr %23, i64 24
  store ptr %35, ptr %36, align 8
  %37 = getelementptr inbounds nuw i8, ptr %23, i64 32
  store ptr %18, ptr %37, align 8
  %38 = getelementptr inbounds nuw i8, ptr %23, i64 44
  store i32 %2, ptr %38, align 4
  tail call void @addNSItemToQuery(ptr noundef %0, ptr noundef nonnull %23, i1 noundef zeroext false, i1 noundef zeroext true, i1 noundef zeroext false) #11
  ret void

.lr.ph:                                           ; preds = %.lr.ph.preheader, %.lr.ph
  %indvars.iv = phi i64 [ 0, %.lr.ph.preheader ], [ %indvars.iv.next, %.lr.ph ]
  %39 = getelementptr inbounds nuw %struct.ParseNamespaceColumn, ptr %18, i64 %indvars.iv, i32 5
  store i32 %2, ptr %39, align 4
  %indvars.iv.next = add nuw nsw i64 %indvars.iv, 1
  %exitcond.not = icmp eq i64 %indvars.iv.next, %wide.trip.count
  br i1 %exitcond.not, label %._crit_edge, label %.lr.ph, !llvm.loop !20
}